(dp0
S'Yaw'
p1
F167.4772811753942
sS'Accel2'
p2
I13334
sS'Accel0'
p3
I3159
sS'Accel1'
p4
I8869
sS'Gyro2'
p5
I-24
sS'Gyro0'
p6
I45
sS'Gyro1'
p7
I-42
sS'Roll'
p8
F6.511482327845186
sS'Mag2'
p9
I-316
sS'Mag1'
p10
I8198
sS'Mag0'
p11
I-85
sS'Pitch'
p12
F-1.5476309703540312
s.