(dp0
S'Yaw'
p1
F174.30570845090378
sS'Accel2'
p2
I16346
sS'Accel0'
p3
I-744
sS'Accel1'
p4
I1082
sS'Gyro2'
p5
I1
sS'Gyro0'
p6
I0
sS'Gyro1'
p7
I1
sS'Roll'
p8
F-0.41929635979507723
sS'Mag2'
p9
I-179
sS'Mag1'
p10
I337
sS'Mag0'
p11
I-596
sS'Pitch'
p12
F-5.180632947242412
s.