(dp0
S'Yaw'
p1
F176.76768121204046
sS'Accel2'
p2
I-113
sS'Accel0'
p3
I83
sS'Accel1'
p4
I15992
sS'Gyro2'
p5
I2
sS'Gyro0'
p6
I0
sS'Gyro1'
p7
I3
sS'Roll'
p8
F12.484734667773743
sS'Mag2'
p9
I13
sS'Mag1'
p10
I86
sS'Mag0'
p11
I-303
sS'Pitch'
p12
F1.6726858770807027
s.