(dp0
S'Yaw'
p1
F-179.8175300661176
sS'Accel2'
p2
I16448
sS'Accel0'
p3
I-1389
sS'Accel1'
p4
I1002
sS'Gyro2'
p5
I2
sS'Gyro0'
p6
I0
sS'Gyro1'
p7
I-2
sS'Roll'
p8
F0.887589677894923
sS'Mag2'
p9
I-199
sS'Mag1'
p10
I-10
sS'Mag0'
p11
I-354
sS'Pitch'
p12
F-9.565004075753544
s.