(dp0
S'Yaw'
p1
F178.47001857057765
sS'Accel2'
p2
I-1007
sS'Accel0'
p3
I-215
sS'Accel1'
p4
I15986
sS'Gyro2'
p5
I1
sS'Gyro0'
p6
I1
sS'Gyro1'
p7
I4
sS'Roll'
p8
F12.952709810719712
sS'Mag2'
p9
I95
sS'Mag1'
p10
I66
sS'Mag0'
p11
I-316
sS'Pitch'
p12
F7.2737352742688
s.